; Function Attrs: mustprogress uwtable
define dso_local noundef ptr @_ZN3tev5Image7textureERKNSt3__112basic_stringIcNS1_11char_traitsIcEENS1_9allocatorIcEEEE(ptr noundef nonnull align 16 dereferenceable(404) %0, ptr nocapture noundef nonnull readonly align 8 dereferenceable(24) %1) local_unnamed_addr #3 align 2 personality ptr @__gxx_personality_v0 {
  %3 = alloca %"class.std::__1::vector", align 8
  call void @_ZNK3tev5Image15channelsInGroupERKNSt3__112basic_stringIcNS1_11char_traitsIcEENS1_9allocatorIcEEEE(ptr dead_on_unwind nonnull writable sret(%"class.std::__1::vector") align 8 %3, ptr noundef nonnull align 16 dereferenceable(404) %0, ptr noundef nonnull align 8 dereferenceable(24) %1)
  %4 = invoke noundef ptr @_ZN3tev5Image7textureERKNSt3__16vectorINS1_12basic_stringIcNS1_11char_traitsIcEENS1_9allocatorIcEEEENS6_IS8_EEEE(ptr noundef nonnull align 16 dereferenceable(404) %0, ptr noundef nonnull align 8 dereferenceable(24) %3)
          to label %5 unwind label %12

5:                                                ; preds = %2
  %6 = load ptr, ptr %3, align 8
  %.not.i.i = icmp eq ptr %6, null
  br i1 %.not.i.i, label %_ZNSt3__16vectorINS_12basic_stringIcNS_11char_traitsIcEENS_9allocatorIcEEEENS4_IS6_EEED2B8ne190000Ev.exit, label %7

7:                                                ; preds = %5
  %8 = getelementptr inbounds i8, ptr %3, i64 8
  %9 = load ptr, ptr %8, align 8
  %.not6.i.i.i.i = icmp eq ptr %9, %6
  br i1 %.not6.i.i.i.i, label %_ZNSt3__16vectorINS_12basic_stringIcNS_11char_traitsIcEENS_9allocatorIcEEEENS4_IS6_EEE7__clearB8ne190000Ev.exit.i.i, label %.lr.ph.i.i.i.i

.lr.ph.i.i.i.i:                                   ; preds = %7, %.lr.ph.i.i.i.i
  %.07.i.i.i.i = phi ptr [ %10, %.lr.ph.i.i.i.i ], [ %9, %7 ]
  %10 = getelementptr inbounds i8, ptr %.07.i.i.i.i, i64 -24
  call void @_ZNSt3__112basic_stringIcNS_11char_traitsIcEENS_9allocatorIcEEED1Ev(ptr noundef nonnull align 8 dereferenceable(24) %10) #27
  %.not.i.i.i.i = icmp eq ptr %10, %6
  br i1 %.not.i.i.i.i, label %_ZNSt3__16vectorINS_12basic_stringIcNS_11char_traitsIcEENS_9allocatorIcEEEENS4_IS6_EEE7__clearB8ne190000Ev.exit.i.loopexit.i, label %.lr.ph.i.i.i.i

_ZNSt3__16vectorINS_12basic_stringIcNS_11char_traitsIcEENS_9allocatorIcEEEENS4_IS6_EEE7__clearB8ne190000Ev.exit.i.loopexit.i: ; preds = %.lr.ph.i.i.i.i
  %.pre.i = load ptr, ptr %3, align 8
  br label %_ZNSt3__16vectorINS_12basic_stringIcNS_11char_traitsIcEENS_9allocatorIcEEEENS4_IS6_EEE7__clearB8ne190000Ev.exit.i.i

_ZNSt3__16vectorINS_12basic_stringIcNS_11char_traitsIcEENS_9allocatorIcEEEENS4_IS6_EEE7__clearB8ne190000Ev.exit.i.i: ; preds = %_ZNSt3__16vectorINS_12basic_stringIcNS_11char_traitsIcEENS_9allocatorIcEEEENS4_IS6_EEE7__clearB8ne190000Ev.exit.i.loopexit.i, %7
  %11 = phi ptr [ %.pre.i, %_ZNSt3__16vectorINS_12basic_stringIcNS_11char_traitsIcEENS_9allocatorIcEEEENS4_IS6_EEE7__clearB8ne190000Ev.exit.i.loopexit.i ], [ %6, %7 ]
  store ptr %6, ptr %8, align 8
  call void @_ZdlPv(ptr noundef %11) #28
  br label %_ZNSt3__16vectorINS_12basic_stringIcNS_11char_traitsIcEENS_9allocatorIcEEEENS4_IS6_EEED2B8ne190000Ev.exit

_ZNSt3__16vectorINS_12basic_stringIcNS_11char_traitsIcEENS_9allocatorIcEEEENS4_IS6_EEED2B8ne190000Ev.exit: ; preds = %5, %_ZNSt3__16vectorINS_12basic_stringIcNS_11char_traitsIcEENS_9allocatorIcEEEENS4_IS6_EEE7__clearB8ne190000Ev.exit.i.i
  ret ptr %4

12:                                               ; preds = %2
  %13 = landingpad { ptr, i32 }
          cleanup
  call void @_ZNSt3__16vectorINS_12basic_stringIcNS_11char_traitsIcEENS_9allocatorIcEEEENS4_IS6_EEED2B8ne190000Ev(ptr noundef nonnull align 8 dereferenceable(24) %3) #27
  resume { ptr, i32 } %13
}